target datalayout = "e-m:e-p270:32:32-p271:32:32-p272:64:64-i64:64-i128:128-f80:128-n8:16:32:64-S128"
target triple = "x86_64-pc-linux-gnu"

%"class.llvm::SmallVectorBase.17" = type { ptr, i32, i32 }
%"class.llvm::BumpPtrAllocatorImpl" = type { ptr, ptr, %"class.llvm::SmallVector.73", %"class.llvm::SmallVector.78", i64, i64 }
%"class.llvm::SmallVector.73" = type { %"class.llvm::SmallVectorImpl.74", %"struct.llvm::SmallVectorStorage.77" }
%"class.llvm::SmallVectorImpl.74" = type { %"class.llvm::SmallVectorTemplateBase.75" }
%"class.llvm::SmallVectorTemplateBase.75" = type { %"class.llvm::SmallVectorTemplateCommon.76" }
%"class.llvm::SmallVectorTemplateCommon.76" = type { %"class.llvm::SmallVectorBase.17" }
%"struct.llvm::SmallVectorStorage.77" = type { [32 x i8] }
%"class.llvm::SmallVector.78" = type { %"class.llvm::SmallVectorImpl.79" }
%"class.llvm::SmallVectorImpl.79" = type { %"class.llvm::SmallVectorTemplateBase.80" }
%"class.llvm::SmallVectorTemplateBase.80" = type { %"class.llvm::SmallVectorTemplateCommon.81" }
%"class.llvm::SmallVectorTemplateCommon.81" = type { %"class.llvm::SmallVectorBase.17" }
%"struct.clang::api_notes::SingleDeclTableKey" = type { i32, i32 }
%"class.llvm::OnDiskChainedHashTableGenerator.197" = type { i32, i32, %"class.llvm::SpecificBumpPtrAllocator.198", ptr }
%"class.llvm::SpecificBumpPtrAllocator.198" = type { %"class.llvm::BumpPtrAllocatorImpl" }
%"class.llvm::SmallVector.203" = type { %"class.llvm::SmallVectorImpl.204", %"struct.llvm::SmallVectorStorage.207" }
%"class.llvm::SmallVectorImpl.204" = type { %"class.llvm::SmallVectorTemplateBase.205" }
%"class.llvm::SmallVectorTemplateBase.205" = type { %"class.llvm::SmallVectorTemplateCommon.206" }
%"class.llvm::SmallVectorTemplateCommon.206" = type { %"class.llvm::SmallVectorBase.17" }
%"struct.llvm::SmallVectorStorage.207" = type { [344 x i8] }
%"class.llvm::OnDiskChainedHashTableGenerator<clang::api_notes::(anonymous namespace)::TagTableInfo>::Item" = type { %"struct.clang::api_notes::SingleDeclTableKey", %"class.llvm::SmallVector.203", ptr, i64 }
%"struct.llvm::OnDiskChainedHashTableGenerator<clang::api_notes::(anonymous namespace)::TagTableInfo>::Bucket" = type { i32, i32, ptr }

@.str.20 = private unnamed_addr constant [18 x i8] c"Allocation failed\00", align 1

; Function Attrs: mustprogress nounwind uwtable
define linkonce_odr hidden noundef nonnull ptr @_ZN4llvm11safe_mallocEm(i64 noundef %0) #0 comdat {
  %2 = alloca ptr, align 8
  %3 = alloca i64, align 8
  %4 = alloca ptr, align 8
  store i64 %0, ptr %3, align 8
  %5 = load i64, ptr %3, align 8
  %6 = call noalias ptr @malloc(i64 noundef %5) #22
  store ptr %6, ptr %4, align 8
  %7 = load ptr, ptr %4, align 8
  %8 = icmp eq ptr %7, null
  br i1 %8, label %9, label %15

9:                                                ; preds = %1
  %10 = load i64, ptr %3, align 8
  %11 = icmp eq i64 %10, 0
  br i1 %11, label %12, label %14

12:                                               ; preds = %9
  %13 = call noundef nonnull ptr @_ZN4llvm11safe_mallocEm(i64 noundef 1)
  store ptr %13, ptr %2, align 8
  br label %17

14:                                               ; preds = %9
  call void @_ZN4llvm22report_bad_alloc_errorEPKcb(ptr noundef @.str.20, i1 noundef zeroext true) #19
  unreachable

15:                                               ; preds = %1
  %16 = load ptr, ptr %4, align 8
  store ptr %16, ptr %2, align 8
  br label %17

17:                                               ; preds = %15, %12
  %18 = load ptr, ptr %2, align 8
  ret ptr %18
}

; Function Attrs: mustprogress nounwind uwtable
define internal void @_ZN4llvm31OnDiskChainedHashTableGeneratorIN5clang9api_notes12_GLOBAL__N_112TagTableInfoEE6insertEPNS5_6BucketEmPNS5_4ItemE(ptr noundef nonnull align 8 dereferenceable(112) %0, ptr noundef %1, i64 noundef %2, ptr noundef %3) #0 align 2 {
  %5 = alloca ptr, align 8
  %6 = alloca ptr, align 8
  %7 = alloca i64, align 8
  %8 = alloca ptr, align 8
  %9 = alloca ptr, align 8
  store ptr %0, ptr %5, align 8
  store ptr %1, ptr %6, align 8
  store i64 %2, ptr %7, align 8
  store ptr %3, ptr %8, align 8
  %10 = load ptr, ptr %6, align 8
  %11 = load ptr, ptr %8, align 8
  %12 = getelementptr inbounds nuw %"class.llvm::OnDiskChainedHashTableGenerator<clang::api_notes::(anonymous namespace)::TagTableInfo>::Item", ptr %11, i32 0, i32 3
  %13 = load i64, ptr %12, align 8
  %14 = load i64, ptr %7, align 8
  %15 = sub i64 %14, 1
  %16 = and i64 %13, %15
  %17 = getelementptr inbounds %"struct.llvm::OnDiskChainedHashTableGenerator<clang::api_notes::(anonymous namespace)::TagTableInfo>::Bucket", ptr %10, i64 %16
  store ptr %17, ptr %9, align 8
  %18 = load ptr, ptr %9, align 8
  %19 = getelementptr inbounds nuw %"struct.llvm::OnDiskChainedHashTableGenerator<clang::api_notes::(anonymous namespace)::TagTableInfo>::Bucket", ptr %18, i32 0, i32 2
  %20 = load ptr, ptr %19, align 8
  %21 = load ptr, ptr %8, align 8
  %22 = getelementptr inbounds nuw %"class.llvm::OnDiskChainedHashTableGenerator<clang::api_notes::(anonymous namespace)::TagTableInfo>::Item", ptr %21, i32 0, i32 2
  store ptr %20, ptr %22, align 8
  %23 = load ptr, ptr %9, align 8
  %24 = getelementptr inbounds nuw %"struct.llvm::OnDiskChainedHashTableGenerator<clang::api_notes::(anonymous namespace)::TagTableInfo>::Bucket", ptr %23, i32 0, i32 1
  %25 = load i32, ptr %24, align 4
  %26 = add i32 %25, 1
  store i32 %26, ptr %24, align 4
  %27 = load ptr, ptr %8, align 8
  %28 = load ptr, ptr %9, align 8
  %29 = getelementptr inbounds nuw %"struct.llvm::OnDiskChainedHashTableGenerator<clang::api_notes::(anonymous namespace)::TagTableInfo>::Bucket", ptr %28, i32 0, i32 2
  store ptr %27, ptr %29, align 8
  ret void
}

; Function Attrs: mustprogress nounwind uwtable
define linkonce_odr hidden noundef nonnull ptr @_ZN4llvm11safe_callocEmm(i64 noundef %0, i64 noundef %1) #0 comdat {
  %3 = alloca ptr, align 8
  %4 = alloca i64, align 8
  %5 = alloca i64, align 8
  %6 = alloca ptr, align 8
  store i64 %0, ptr %4, align 8
  store i64 %1, ptr %5, align 8
  %7 = load i64, ptr %4, align 8
  %8 = load i64, ptr %5, align 8
  %9 = call noalias ptr @calloc(i64 noundef %7, i64 noundef %8) #21
  store ptr %9, ptr %6, align 8
  %10 = load ptr, ptr %6, align 8
  %11 = icmp eq ptr %10, null
  br i1 %11, label %12, label %21

12:                                               ; preds = %2
  %13 = load i64, ptr %4, align 8
  %14 = icmp eq i64 %13, 0
  br i1 %14, label %18, label %15

15:                                               ; preds = %12
  %16 = load i64, ptr %5, align 8
  %17 = icmp eq i64 %16, 0
  br i1 %17, label %18, label %20

18:                                               ; preds = %15, %12
  %19 = call noundef nonnull ptr @_ZN4llvm11safe_mallocEm(i64 noundef 1)
  store ptr %19, ptr %3, align 8
  br label %23

20:                                               ; preds = %15
  call void @_ZN4llvm22report_bad_alloc_errorEPKcb(ptr noundef @.str.20, i1 noundef zeroext true) #19
  unreachable

21:                                               ; preds = %2
  %22 = load ptr, ptr %6, align 8
  store ptr %22, ptr %3, align 8
  br label %23

23:                                               ; preds = %21, %18
  %24 = load ptr, ptr %3, align 8
  ret ptr %24
}

; Function Attrs: mustprogress nounwind uwtable
define internal void @_ZN4llvm31OnDiskChainedHashTableGeneratorIN5clang9api_notes12_GLOBAL__N_112TagTableInfoEE6resizeEm(ptr noundef nonnull align 8 dereferenceable(112) %0, i64 noundef %1) #0 align 2 {
  %3 = alloca ptr, align 8
  %4 = alloca i64, align 8
  %5 = alloca ptr, align 8
  %6 = alloca i64, align 8
  %7 = alloca ptr, align 8
  %8 = alloca ptr, align 8
  store ptr %0, ptr %3, align 8
  store i64 %1, ptr %4, align 8
  %9 = load ptr, ptr %3, align 8
  %10 = load i64, ptr %4, align 8
  %11 = call noundef nonnull ptr @_ZN4llvm11safe_callocEmm(i64 noundef %10, i64 noundef 16)
  store ptr %11, ptr %5, align 8
  store i64 0, ptr %6, align 8
  br label %12

12:                                               ; preds = %39, %2
  %13 = load i64, ptr %6, align 8
  %14 = getelementptr inbounds nuw %"class.llvm::OnDiskChainedHashTableGenerator.197", ptr %9, i32 0, i32 0
  %15 = load i32, ptr %14, align 8
  %16 = zext i32 %15 to i64
  %17 = icmp ult i64 %13, %16
  br i1 %17, label %18, label %42

18:                                               ; preds = %12
  %19 = getelementptr inbounds nuw %"class.llvm::OnDiskChainedHashTableGenerator.197", ptr %9, i32 0, i32 3
  %20 = load ptr, ptr %19, align 8
  %21 = load i64, ptr %6, align 8
  %22 = getelementptr inbounds %"struct.llvm::OnDiskChainedHashTableGenerator<clang::api_notes::(anonymous namespace)::TagTableInfo>::Bucket", ptr %20, i64 %21
  %23 = getelementptr inbounds nuw %"struct.llvm::OnDiskChainedHashTableGenerator<clang::api_notes::(anonymous namespace)::TagTableInfo>::Bucket", ptr %22, i32 0, i32 2
  %24 = load ptr, ptr %23, align 8
  store ptr %24, ptr %7, align 8
  br label %25

25:                                               ; preds = %28, %18
  %26 = load ptr, ptr %7, align 8
  %27 = icmp ne ptr %26, null
  br i1 %27, label %28, label %38

28:                                               ; preds = %25
  %29 = load ptr, ptr %7, align 8
  %30 = getelementptr inbounds nuw %"class.llvm::OnDiskChainedHashTableGenerator<clang::api_notes::(anonymous namespace)::TagTableInfo>::Item", ptr %29, i32 0, i32 2
  %31 = load ptr, ptr %30, align 8
  store ptr %31, ptr %8, align 8
  %32 = load ptr, ptr %7, align 8
  %33 = getelementptr inbounds nuw %"class.llvm::OnDiskChainedHashTableGenerator<clang::api_notes::(anonymous namespace)::TagTableInfo>::Item", ptr %32, i32 0, i32 2
  store ptr null, ptr %33, align 8
  %34 = load ptr, ptr %5, align 8
  %35 = load i64, ptr %4, align 8
  %36 = load ptr, ptr %7, align 8
  call void @_ZN4llvm31OnDiskChainedHashTableGeneratorIN5clang9api_notes12_GLOBAL__N_112TagTableInfoEE6insertEPNS5_6BucketEmPNS5_4ItemE(ptr noundef nonnull align 8 dereferenceable(112) %9, ptr noundef %34, i64 noundef %35, ptr noundef %36)
  %37 = load ptr, ptr %8, align 8
  store ptr %37, ptr %7, align 8
  br label %25, !llvm.loop !318

38:                                               ; preds = %25
  br label %39

39:                                               ; preds = %38
  %40 = load i64, ptr %6, align 8
  %41 = add i64 %40, 1
  store i64 %41, ptr %6, align 8
  br label %12, !llvm.loop !319

42:                                               ; preds = %12
  %43 = getelementptr inbounds nuw %"class.llvm::OnDiskChainedHashTableGenerator.197", ptr %9, i32 0, i32 3
  %44 = load ptr, ptr %43, align 8
  call void @free(ptr noundef %44) #16
  %45 = load i64, ptr %4, align 8
  %46 = trunc i64 %45 to i32
  %47 = getelementptr inbounds nuw %"class.llvm::OnDiskChainedHashTableGenerator.197", ptr %9, i32 0, i32 0
  store i32 %46, ptr %47, align 8
  %48 = load ptr, ptr %5, align 8
  %49 = getelementptr inbounds nuw %"class.llvm::OnDiskChainedHashTableGenerator.197", ptr %9, i32 0, i32 3
  store ptr %48, ptr %49, align 8
  ret void
}