; Function Attrs: mustprogress nounwind uwtable
define internal fastcc void @_ZN4llvm31OnDiskChainedHashTableGeneratorIN5clang9api_notes12_GLOBAL__N_112TagTableInfoEE6resizeEm(ptr noundef nonnull align 8 captures(none) dereferenceable(112) %0, i64 noundef range(i64 0, 4294967296) %1) unnamed_addr #0 align 2 {
  %3 = tail call noalias ptr @calloc(i64 noundef %1, i64 noundef 16) #17
  %4 = icmp eq ptr %3, null
  br i1 %4, label %5, label %_ZN4llvm11safe_callocEmm.exit

5:                                                ; preds = %2
  %6 = icmp eq i64 %1, 0
  br i1 %6, label %7, label %11

7:                                                ; preds = %5
  %8 = tail call noalias dereferenceable_or_null(1) ptr @malloc(i64 noundef 1) #21
  %9 = icmp eq ptr %8, null
  br i1 %9, label %10, label %_ZN4llvm11safe_callocEmm.exit

10:                                               ; preds = %7
  tail call void @_ZN4llvm22report_bad_alloc_errorEPKcb(ptr noundef nonnull @.str.20, i1 noundef zeroext true) #18
  unreachable

11:                                               ; preds = %5
  tail call void @_ZN4llvm22report_bad_alloc_errorEPKcb(ptr noundef nonnull @.str.20, i1 noundef zeroext true) #18
  unreachable

_ZN4llvm11safe_callocEmm.exit:                    ; preds = %2, %7
  %.0.i = phi ptr [ %3, %2 ], [ %8, %7 ]
  %12 = load i32, ptr %0, align 8
  %.not19 = icmp eq i32 %12, 0
  br i1 %.not19, label %._crit_edge18, label %.lr.ph17

.lr.ph17:                                         ; preds = %_ZN4llvm11safe_callocEmm.exit
  %13 = getelementptr inbounds nuw i8, ptr %0, i64 104
  %14 = add nsw i64 %1, -1
  br label %15

15:                                               ; preds = %.lr.ph17, %._crit_edge
  %16 = phi i32 [ %12, %.lr.ph17 ], [ %31, %._crit_edge ]
  %.016 = phi i64 [ 0, %.lr.ph17 ], [ %32, %._crit_edge ]
  %17 = load ptr, ptr %13, align 8
  %18 = getelementptr inbounds nuw %"struct.llvm::OnDiskChainedHashTableGenerator<clang::api_notes::(anonymous namespace)::TagTableInfo>::Bucket", ptr %17, i64 %.016, i32 2
  %19 = load ptr, ptr %18, align 8
  %.not14 = icmp eq ptr %19, null
  br i1 %.not14, label %._crit_edge, label %.lr.ph

.lr.ph:                                           ; preds = %15, %.lr.ph
  %.01315 = phi ptr [ %21, %.lr.ph ], [ %19, %15 ]
  %20 = getelementptr inbounds nuw i8, ptr %.01315, i64 368
  %21 = load ptr, ptr %20, align 8
  %22 = getelementptr inbounds nuw i8, ptr %.01315, i64 376
  %23 = load i64, ptr %22, align 8
  %24 = and i64 %23, %14
  %25 = getelementptr inbounds %"struct.llvm::OnDiskChainedHashTableGenerator<clang::api_notes::(anonymous namespace)::TagTableInfo>::Bucket", ptr %.0.i, i64 %24
  %26 = getelementptr inbounds nuw i8, ptr %25, i64 8
  %27 = load ptr, ptr %26, align 8
  store ptr %27, ptr %20, align 8
  %28 = getelementptr inbounds nuw i8, ptr %25, i64 4
  %29 = load i32, ptr %28, align 4
  %30 = add i32 %29, 1
  store i32 %30, ptr %28, align 4
  store ptr %.01315, ptr %26, align 8
  %.not = icmp eq ptr %21, null
  br i1 %.not, label %._crit_edge.loopexit, label %.lr.ph, !llvm.loop !409

._crit_edge.loopexit:                             ; preds = %.lr.ph
  %.pre = load i32, ptr %0, align 8
  br label %._crit_edge

._crit_edge:                                      ; preds = %._crit_edge.loopexit, %15
  %31 = phi i32 [ %.pre, %._crit_edge.loopexit ], [ %16, %15 ]
  %32 = add nuw nsw i64 %.016, 1
  %33 = zext i32 %31 to i64
  %34 = icmp samesign ult i64 %32, %33
  br i1 %34, label %15, label %._crit_edge18, !llvm.loop !410

._crit_edge18:                                    ; preds = %._crit_edge, %_ZN4llvm11safe_callocEmm.exit
  %35 = getelementptr inbounds nuw i8, ptr %0, i64 104
  %36 = load ptr, ptr %35, align 8
  tail call void @free(ptr noundef %36) #16
  %37 = trunc nuw i64 %1 to i32
  store i32 %37, ptr %0, align 8
  store ptr %.0.i, ptr %35, align 8
  ret void
}